target datalayout = "e-m:e-p270:32:32-p271:32:32-p272:64:64-i64:64-i128:128-f80:128-n8:16:32:64-S128"
target triple = "x86_64-pc-linux-gnu"

%struct.ASN1_TEMPLATE_st = type { i64, i64, i64, ptr, ptr }

@AUTHORITY_KEYID_it.local_it = internal constant { i8, [7 x i8], i64, ptr, i64, ptr, i64, ptr } { i8 1, [7 x i8] zeroinitializer, i64 16, ptr @AUTHORITY_KEYID_seq_tt, i64 3, ptr null, i64 24, ptr @.str }, align 8
@AUTHORITY_KEYID_seq_tt = internal constant [3 x %struct.ASN1_TEMPLATE_st] [%struct.ASN1_TEMPLATE_st { i64 137, i64 0, i64 0, ptr @.str.1, ptr @ASN1_OCTET_STRING_it }, %struct.ASN1_TEMPLATE_st { i64 141, i64 1, i64 8, ptr @.str.2, ptr @GENERAL_NAME_it }, %struct.ASN1_TEMPLATE_st { i64 137, i64 2, i64 16, ptr @.str.3, ptr @ASN1_INTEGER_it }], align 16
@.str = private unnamed_addr constant [16 x i8] c"AUTHORITY_KEYID\00", align 1
@.str.1 = private unnamed_addr constant [6 x i8] c"keyid\00", align 1
@.str.2 = private unnamed_addr constant [7 x i8] c"issuer\00", align 1
@.str.3 = private unnamed_addr constant [7 x i8] c"serial\00", align 1

; Function Attrs: nounwind uwtable
define ptr @AUTHORITY_KEYID_it() #0 {
  ret ptr @AUTHORITY_KEYID_it.local_it
}

; Function Attrs: nounwind uwtable
define ptr @d2i_AUTHORITY_KEYID(ptr noundef %0, ptr noundef %1, i64 noundef %2) #0 {
  %4 = alloca ptr, align 8
  %5 = alloca ptr, align 8
  %6 = alloca i64, align 8
  store ptr %0, ptr %4, align 8, !tbaa !3
  store ptr %1, ptr %5, align 8, !tbaa !8
  store i64 %2, ptr %6, align 8, !tbaa !10
  %7 = load ptr, ptr %4, align 8, !tbaa !3
  %8 = load ptr, ptr %5, align 8, !tbaa !8
  %9 = load i64, ptr %6, align 8, !tbaa !10
  %10 = call ptr @AUTHORITY_KEYID_it()
  %11 = call ptr @ASN1_item_d2i(ptr noundef %7, ptr noundef %8, i64 noundef %9, ptr noundef %10)
  ret ptr %11
}

declare ptr @ASN1_item_d2i(ptr noundef, ptr noundef, i64 noundef, ptr noundef) #1

; Function Attrs: nounwind uwtable
define i32 @i2d_AUTHORITY_KEYID(ptr noundef %0, ptr noundef %1) #0 {
  %3 = alloca ptr, align 8
  %4 = alloca ptr, align 8
  store ptr %0, ptr %3, align 8, !tbaa !12
  store ptr %1, ptr %4, align 8, !tbaa !8
  %5 = load ptr, ptr %3, align 8, !tbaa !12
  %6 = load ptr, ptr %4, align 8, !tbaa !8
  %7 = call ptr @AUTHORITY_KEYID_it()
  %8 = call i32 @ASN1_item_i2d(ptr noundef %5, ptr noundef %6, ptr noundef %7)
  ret i32 %8
}

declare i32 @ASN1_item_i2d(ptr noundef, ptr noundef, ptr noundef) #1

; Function Attrs: nounwind uwtable
define ptr @AUTHORITY_KEYID_new() #0 {
  %1 = call ptr @AUTHORITY_KEYID_it()
  %2 = call ptr @ASN1_item_new(ptr noundef %1)
  ret ptr %2
}

declare ptr @ASN1_item_new(ptr noundef) #1

; Function Attrs: nounwind uwtable
define void @AUTHORITY_KEYID_free(ptr noundef %0) #0 {
  %2 = alloca ptr, align 8
  store ptr %0, ptr %2, align 8, !tbaa !12
  %3 = load ptr, ptr %2, align 8, !tbaa !12
  %4 = call ptr @AUTHORITY_KEYID_it()
  call void @ASN1_item_free(ptr noundef %3, ptr noundef %4)
  ret void
}

declare void @ASN1_item_free(ptr noundef, ptr noundef) #1

declare ptr @ASN1_OCTET_STRING_it() #1

declare ptr @GENERAL_NAME_it() #1

declare ptr @ASN1_INTEGER_it() #1


!llvm.module.flags = !{!0, !1, !2}

!0 = !{i32 1, !"wchar_size", i32 4}
!1 = !{i32 8, !"PIC Level", i32 2}
!2 = !{i32 7, !"uwtable", i32 2}
!3 = !{!4, !4, i64 0}
!4 = !{!"p2 _ZTS18AUTHORITY_KEYID_st", !5, i64 0}
!5 = !{!"any pointer", !6, i64 0}
!6 = !{!"omnipotent char", !7, i64 0}
!7 = !{!"Simple C/C++ TBAA"}
!8 = !{!9, !9, i64 0}
!9 = !{!"p2 omnipotent char", !5, i64 0}
!10 = !{!11, !11, i64 0}
!11 = !{!"long", !6, i64 0}
!12 = !{!13, !13, i64 0}
!13 = !{!"p1 _ZTS18AUTHORITY_KEYID_st", !5, i64 0}
