; ModuleID = 'bench/openssl/original/v3_akeya.ll'
source_filename = "bench/openssl/original/v3_akeya.ll"
target datalayout = "e-m:e-p270:32:32-p271:32:32-p272:64:64-i64:64-i128:128-f80:128-n8:16:32:64-S128"
target triple = "x86_64-pc-linux-gnu"

%struct.ASN1_TEMPLATE_st = type { i64, i64, i64, ptr, ptr }

@AUTHORITY_KEYID_it.local_it = internal constant { i8, [7 x i8], i64, ptr, i64, ptr, i64, ptr } { i8 1, [7 x i8] zeroinitializer, i64 16, ptr @AUTHORITY_KEYID_seq_tt, i64 3, ptr null, i64 24, ptr @.str }, align 8
@AUTHORITY_KEYID_seq_tt = internal constant [3 x %struct.ASN1_TEMPLATE_st] [%struct.ASN1_TEMPLATE_st { i64 137, i64 0, i64 0, ptr @.str.1, ptr @ASN1_OCTET_STRING_it }, %struct.ASN1_TEMPLATE_st { i64 141, i64 1, i64 8, ptr @.str.2, ptr @GENERAL_NAME_it }, %struct.ASN1_TEMPLATE_st { i64 137, i64 2, i64 16, ptr @.str.3, ptr @ASN1_INTEGER_it }], align 16
@.str = private unnamed_addr constant [16 x i8] c"AUTHORITY_KEYID\00", align 1
@.str.1 = private unnamed_addr constant [6 x i8] c"keyid\00", align 1
@.str.2 = private unnamed_addr constant [7 x i8] c"issuer\00", align 1
@.str.3 = private unnamed_addr constant [7 x i8] c"serial\00", align 1

; Function Attrs: mustprogress nofree norecurse nosync nounwind willreturn memory(none) uwtable
define noundef nonnull ptr @AUTHORITY_KEYID_it() local_unnamed_addr #0 {
  ret ptr @AUTHORITY_KEYID_it.local_it
}

; Function Attrs: nounwind uwtable
define ptr @d2i_AUTHORITY_KEYID(ptr noundef %0, ptr noundef %1, i64 noundef %2) local_unnamed_addr #1 {
  %4 = tail call ptr @ASN1_item_d2i(ptr noundef %0, ptr noundef %1, i64 noundef %2, ptr noundef nonnull @AUTHORITY_KEYID_it.local_it) #3
  ret ptr %4
}

declare ptr @ASN1_item_d2i(ptr noundef, ptr noundef, i64 noundef, ptr noundef) local_unnamed_addr #2

; Function Attrs: nounwind uwtable
define i32 @i2d_AUTHORITY_KEYID(ptr noundef %0, ptr noundef %1) local_unnamed_addr #1 {
  %3 = tail call i32 @ASN1_item_i2d(ptr noundef %0, ptr noundef %1, ptr noundef nonnull @AUTHORITY_KEYID_it.local_it) #3
  ret i32 %3
}

declare i32 @ASN1_item_i2d(ptr noundef, ptr noundef, ptr noundef) local_unnamed_addr #2

; Function Attrs: nounwind uwtable
define ptr @AUTHORITY_KEYID_new() local_unnamed_addr #1 {
  %1 = tail call ptr @ASN1_item_new(ptr noundef nonnull @AUTHORITY_KEYID_it.local_it) #3
  ret ptr %1
}

declare ptr @ASN1_item_new(ptr noundef) local_unnamed_addr #2

; Function Attrs: nounwind uwtable
define void @AUTHORITY_KEYID_free(ptr noundef %0) local_unnamed_addr #1 {
  tail call void @ASN1_item_free(ptr noundef %0, ptr noundef nonnull @AUTHORITY_KEYID_it.local_it) #3
  ret void
}

declare void @ASN1_item_free(ptr noundef, ptr noundef) local_unnamed_addr #2

declare ptr @ASN1_OCTET_STRING_it() #2

declare ptr @GENERAL_NAME_it() #2

declare ptr @ASN1_INTEGER_it() #2


!llvm.module.flags = !{!0, !1, !2}

!0 = !{i32 1, !"wchar_size", i32 4}
!1 = !{i32 8, !"PIC Level", i32 2}
!2 = !{i32 7, !"uwtable", i32 2}
